target datalayout = "e-m:e-p270:32:32-p271:32:32-p272:64:64-i64:64-i128:128-f80:128-n8:16:32:64-S128"
target triple = "x86_64-unknown-linux-gnu"

%"struct.std::_Rb_tree_header" = type { %"struct.std::_Rb_tree_node_base", i64 }
%"struct.std::_Rb_tree_node_base" = type { i32, ptr, ptr, ptr }
%"class.datalog::aig_exporter" = type { ptr, ptr, ptr, ptr, %class.aig_manager, %class.obj_map, i32, [4 x i8], %class.obj_map.0, i32, %"class.std::map", i32, %class.ref_vector, %class.ref_vector, %class.ref_vector, %class.ref_vector, %class.svector, %"class.std::__cxx11::basic_stringstream" }
%class.aig_manager = type { ptr }
%class.obj_map = type { %class.core_hashtable }
%class.core_hashtable = type <{ ptr, i32, i32, i32, [4 x i8] }>
%class.obj_map.0 = type { %class.core_hashtable.1 }
%class.core_hashtable.1 = type <{ ptr, i32, i32, i32, [4 x i8] }>
%"class.std::map" = type { %"class.std::_Rb_tree" }
%"class.std::_Rb_tree" = type { %"struct.std::_Rb_tree<std::pair<unsigned int, unsigned int>, std::pair<const std::pair<unsigned int, unsigned int>, unsigned int>, std::_Select1st<std::pair<const std::pair<unsigned int, unsigned int>, unsigned int>>, std::less<std::pair<unsigned int, unsigned int>>>::_Rb_tree_impl" }
%"struct.std::_Rb_tree<std::pair<unsigned int, unsigned int>, std::pair<const std::pair<unsigned int, unsigned int>, unsigned int>, std::_Select1st<std::pair<const std::pair<unsigned int, unsigned int>, unsigned int>>, std::less<std::pair<unsigned int, unsigned int>>>::_Rb_tree_impl" = type { %"struct.std::_Rb_tree_key_compare", %"struct.std::_Rb_tree_header" }
%"struct.std::_Rb_tree_key_compare" = type { %"struct.std::less" }
%"struct.std::less" = type { i8 }
%class.ref_vector = type { %class.ref_vector_core }
%class.ref_vector_core = type { %class.ref_manager_wrapper, %class.ptr_vector }
%class.ref_manager_wrapper = type { ptr }
%class.ptr_vector = type { %class.vector }
%class.vector = type { ptr }
%class.svector = type { %class.vector.5 }
%class.vector.5 = type { ptr }
%"class.std::__cxx11::basic_stringstream" = type { %"class.std::basic_iostream.base", %"class.std::__cxx11::basic_stringbuf", %"class.std::basic_ios" }
%"class.std::basic_iostream.base" = type { %"class.std::basic_istream.base", %"class.std::basic_ostream.base" }
%"class.std::basic_istream.base" = type { ptr, i64 }
%"class.std::basic_ostream.base" = type { ptr }
%"class.std::__cxx11::basic_stringbuf" = type { %"class.std::basic_streambuf", i32, %"class.std::__cxx11::basic_string" }
%"class.std::basic_streambuf" = type { ptr, ptr, ptr, ptr, ptr, ptr, ptr, %"class.std::locale" }
%"class.std::locale" = type { ptr }
%"class.std::__cxx11::basic_string" = type { %"struct.std::__cxx11::basic_string<char>::_Alloc_hider", i64, %union.anon }
%"struct.std::__cxx11::basic_string<char>::_Alloc_hider" = type { ptr }
%union.anon = type { i64, [8 x i8] }
%"class.std::basic_ios" = type { %"class.std::ios_base", ptr, i8, i8, ptr, ptr, ptr, ptr }
%"class.std::ios_base" = type { ptr, i64, i64, i32, i32, i32, ptr, %"struct.std::ios_base::_Words", [8 x %"struct.std::ios_base::_Words"], i32, ptr, %"class.std::locale" }
%"struct.std::ios_base::_Words" = type { ptr, i64 }
%"struct.obj_map<const expr, unsigned int>::key_data" = type <{ ptr, i32, [4 x i8] }>

; Function Attrs: mustprogress nounwind uwtable
define linkonce_odr hidden void @_ZN7obj_mapIK4exprjE8key_dataC2EPS1_RKj(ptr noundef nonnull align 8 dereferenceable(12) %this, ptr noundef %k, ptr noundef nonnull align 4 dereferenceable(4) %v) unnamed_addr #5 comdat align 2 {
entry:
  %this.addr = alloca ptr, align 8
  %k.addr = alloca ptr, align 8
  %v.addr = alloca ptr, align 8
  store ptr %this, ptr %this.addr, align 8
  store ptr %k, ptr %k.addr, align 8
  store ptr %v, ptr %v.addr, align 8
  %this1 = load ptr, ptr %this.addr, align 8
  %m_key = getelementptr inbounds %"struct.obj_map<const expr, unsigned int>::key_data", ptr %this1, i32 0, i32 0
  %0 = load ptr, ptr %k.addr, align 8
  store ptr %0, ptr %m_key, align 8
  %m_value = getelementptr inbounds %"struct.obj_map<const expr, unsigned int>::key_data", ptr %this1, i32 0, i32 1
  %1 = load ptr, ptr %v.addr, align 8
  %2 = load i32, ptr %1, align 4
  store i32 %2, ptr %m_value, align 8
  ret void
}

; Function Attrs: mustprogress uwtable
define linkonce_odr hidden void @_ZN7obj_mapIK4exprjE6insertEPS1_RKj(ptr noundef nonnull align 8 dereferenceable(24) %this, ptr noundef %k, ptr noundef nonnull align 4 dereferenceable(4) %v) #4 comdat align 2 {
entry:
  %this.addr = alloca ptr, align 8
  %k.addr = alloca ptr, align 8
  %v.addr = alloca ptr, align 8
  %ref.tmp = alloca %"struct.obj_map<const expr, unsigned int>::key_data", align 8
  store ptr %this, ptr %this.addr, align 8
  store ptr %k, ptr %k.addr, align 8
  store ptr %v, ptr %v.addr, align 8
  %this1 = load ptr, ptr %this.addr, align 8
  %m_table = getelementptr inbounds %class.obj_map.0, ptr %this1, i32 0, i32 0
  %0 = load ptr, ptr %k.addr, align 8
  %1 = load ptr, ptr %v.addr, align 8
  call void @_ZN7obj_mapIK4exprjE8key_dataC2EPS1_RKj(ptr noundef nonnull align 8 dereferenceable(12) %ref.tmp, ptr noundef %0, ptr noundef nonnull align 4 dereferenceable(4) %1)
  call void @_ZN14core_hashtableIN7obj_mapIK4exprjE13obj_map_entryE8obj_hashINS3_8key_dataEE10default_eqIS6_EE6insertEOS6_(ptr noundef nonnull align 8 dereferenceable(20) %m_table, ptr noundef nonnull align 8 dereferenceable(12) %ref.tmp)
  ret void
}

; Function Attrs: mustprogress nounwind uwtable
define hidden noundef i32 @_ZN7datalog12aig_exporter10mk_expr_idEv(ptr noundef nonnull align 8 dereferenceable(624) %this) #5 align 2 {
entry:
  %this.addr = alloca ptr, align 8
  %id = alloca i32, align 4
  store ptr %this, ptr %this.addr, align 8
  %this1 = load ptr, ptr %this.addr, align 8
  %m_next_aig_expr_id = getelementptr inbounds %"class.datalog::aig_exporter", ptr %this1, i32 0, i32 9
  %0 = load i32, ptr %m_next_aig_expr_id, align 8
  store i32 %0, ptr %id, align 4
  %m_next_aig_expr_id2 = getelementptr inbounds %"class.datalog::aig_exporter", ptr %this1, i32 0, i32 9
  %1 = load i32, ptr %m_next_aig_expr_id2, align 8
  %add = add i32 %1, 2
  store i32 %add, ptr %m_next_aig_expr_id2, align 8
  %2 = load i32, ptr %id, align 4
  ret i32 %2
}

; Function Attrs: mustprogress uwtable
define hidden noundef i32 @_ZN7datalog12aig_exporter6mk_varEPK4expr(ptr noundef nonnull align 8 dereferenceable(624) %this, ptr noundef %e) #4 align 2 {
entry:
  %this.addr = alloca ptr, align 8
  %e.addr = alloca ptr, align 8
  %id = alloca i32, align 4
  store ptr %this, ptr %this.addr, align 8
  store ptr %e, ptr %e.addr, align 8
  %this1 = load ptr, ptr %this.addr, align 8
  %call = call noundef i32 @_ZN7datalog12aig_exporter10mk_expr_idEv(ptr noundef nonnull align 8 dereferenceable(624) %this1)
  store i32 %call, ptr %id, align 4
  %m_aig_expr_id_map = getelementptr inbounds %"class.datalog::aig_exporter", ptr %this1, i32 0, i32 8
  %0 = load ptr, ptr %e.addr, align 8
  call void @_ZN7obj_mapIK4exprjE6insertEPS1_RKj(ptr noundef nonnull align 8 dereferenceable(24) %m_aig_expr_id_map, ptr noundef %0, ptr noundef nonnull align 4 dereferenceable(4) %id)
  %1 = load i32, ptr %id, align 4
  ret i32 %1
}