; Function Attrs: mustprogress uwtable
define hidden noundef i32 @_ZN7datalog12aig_exporter6mk_varEPK4expr(ptr noundef nonnull align 8 dereferenceable(624) %this, ptr noundef %e) local_unnamed_addr #3 align 2 {
entry:
  %ref.tmp.i = alloca %"struct.obj_map<const expr, unsigned int>::key_data", align 8
  %m_next_aig_expr_id.i = getelementptr inbounds i8, ptr %this, i64 96
  %0 = load i32, ptr %m_next_aig_expr_id.i, align 8
  %add.i = add i32 %0, 2
  store i32 %add.i, ptr %m_next_aig_expr_id.i, align 8
  %m_aig_expr_id_map = getelementptr inbounds i8, ptr %this, i64 72
  call void @llvm.lifetime.start.p0(i64 16, ptr nonnull %ref.tmp.i)
  store ptr %e, ptr %ref.tmp.i, align 8
  %m_value.i.i = getelementptr inbounds i8, ptr %ref.tmp.i, i64 8
  store i32 %0, ptr %m_value.i.i, align 8
  call void @_ZN14core_hashtableIN7obj_mapIK4exprjE13obj_map_entryE8obj_hashINS3_8key_dataEE10default_eqIS6_EE6insertEOS6_(ptr noundef nonnull align 8 dereferenceable(20) %m_aig_expr_id_map, ptr noundef nonnull align 8 dereferenceable(12) %ref.tmp.i)
  call void @llvm.lifetime.end.p0(i64 16, ptr nonnull %ref.tmp.i)
  ret i32 %0
}